target datalayout = "e-m:e-p270:32:32-p271:32:32-p272:64:64-i64:64-i128:128-f80:128-n8:16:32:64-S128"
target triple = "x86_64-pc-linux-gnu"

%"class.gmx::internal::AnalysisNeighborhoodPairSearchImpl" = type <{ ptr, i8, [3 x i8], i32, ptr, ptr, ptr, %"class.gmx::ArrayRef", i32, [3 x float], i32, float, [3 x float], i32, [3 x float], i32, [3 x i32], [3 x i32], i32, [4 x i8] }>
%"class.gmx::ArrayRef" = type { %"struct.gmx::ArrayRefIter", %"struct.gmx::ArrayRefIter" }
%"struct.gmx::ArrayRefIter" = type { ptr }

; Function Attrs: mustprogress uwtable
define void @_ZN3gmx8internal34AnalysisNeighborhoodPairSearchImpl16nextTestPositionEv(ptr noundef nonnull align 8 dereferenceable(140) %0) #0 align 2 {
  %2 = alloca ptr, align 8
  store ptr %0, ptr %2, align 8, !tbaa !162
  %3 = load ptr, ptr %2, align 8
  %4 = getelementptr inbounds nuw %"class.gmx::internal::AnalysisNeighborhoodPairSearchImpl", ptr %3, i32 0, i32 8
  %5 = load i32, ptr %4, align 8, !tbaa !177
  %6 = getelementptr inbounds nuw %"class.gmx::internal::AnalysisNeighborhoodPairSearchImpl", ptr %3, i32 0, i32 3
  %7 = load i32, ptr %6, align 4, !tbaa !168
  %8 = icmp slt i32 %5, %7
  br i1 %8, label %9, label %15

9:                                                ; preds = %1
  %10 = getelementptr inbounds nuw %"class.gmx::internal::AnalysisNeighborhoodPairSearchImpl", ptr %3, i32 0, i32 8
  %11 = load i32, ptr %10, align 8, !tbaa !177
  %12 = add nsw i32 %11, 1
  store i32 %12, ptr %10, align 8, !tbaa !177
  %13 = getelementptr inbounds nuw %"class.gmx::internal::AnalysisNeighborhoodPairSearchImpl", ptr %3, i32 0, i32 8
  %14 = load i32, ptr %13, align 8, !tbaa !177
  call void @_ZN3gmx8internal34AnalysisNeighborhoodPairSearchImpl5resetEi(ptr noundef nonnull align 8 dereferenceable(140) %3, i32 noundef %14)
  br label %15

15:                                               ; preds = %9, %1
  ret void
}