; Function Attrs: mustprogress nofree nounwind memory(readwrite, inaccessiblemem: write) uwtable
define void @_ZN3gmx8internal34AnalysisNeighborhoodPairSearchImpl16nextTestPositionEv(ptr noundef nonnull align 8 captures(none) dereferenceable(140) %0) local_unnamed_addr #26 align 2 {
  %2 = getelementptr inbounds nuw i8, ptr %0, i64 56
  %3 = load i32, ptr %2, align 8, !tbaa !78
  %4 = getelementptr inbounds nuw i8, ptr %0, i64 12
  %5 = load i32, ptr %4, align 4, !tbaa !180
  %6 = icmp slt i32 %3, %5
  br i1 %6, label %7, label %9

7:                                                ; preds = %1
  %8 = add nsw i32 %3, 1
  store i32 %8, ptr %2, align 8, !tbaa !78
  tail call void @_ZN3gmx8internal34AnalysisNeighborhoodPairSearchImpl5resetEi(ptr noundef nonnull align 8 dereferenceable(140) %0, i32 noundef %8)
  br label %9

9:                                                ; preds = %7, %1
  ret void
}